target datalayout = "e-m:e-p270:32:32-p271:32:32-p272:64:64-i64:64-i128:128-f80:128-n8:16:32:64-S128"
target triple = "x86_64-pc-linux-gnu"

%"struct.faiss::IndexPQFastScan" = type { %"struct.faiss::IndexFastScan", %"struct.faiss::ProductQuantizer" }
%"struct.faiss::IndexFastScan" = type { %"struct.faiss::Index.base", i32, i32, i32, i32, i64, i64, i64, i64, i64, i64, %"struct.faiss::AlignedTable", ptr }
%"struct.faiss::Index.base" = type <{ ptr, i32, [4 x i8], i64, i8, i8, [2 x i8], i32, float }>
%"struct.faiss::AlignedTable" = type { %"struct.faiss::AlignedTableTightAlloc", i64 }
%"struct.faiss::AlignedTableTightAlloc" = type { ptr, i64 }
%"struct.faiss::ProductQuantizer" = type { %"struct.faiss::Quantizer", i64, i64, i64, i64, i8, i32, %"struct.faiss::ClusteringParameters", ptr, %"class.std::vector", %"class.std::vector", %"class.std::vector", %"class.std::vector" }
%"struct.faiss::Quantizer" = type { ptr, i64, i64 }
%"struct.faiss::ClusteringParameters" = type { i32, i32, i8, i8, i8, i8, i8, i32, i32, i32, i64 }
%"class.std::vector" = type { %"struct.std::_Vector_base" }
%"struct.std::_Vector_base" = type { %"struct.std::_Vector_base<float, std::allocator<float>>::_Vector_impl" }
%"struct.std::_Vector_base<float, std::allocator<float>>::_Vector_impl" = type { %"struct.std::_Vector_base<float, std::allocator<float>>::_Vector_impl_data" }
%"struct.std::_Vector_base<float, std::allocator<float>>::_Vector_impl_data" = type { ptr, ptr, ptr }
%"struct.faiss::Index" = type <{ ptr, i32, [4 x i8], i64, i8, i8, [2 x i8], i32, float, [4 x i8] }>
%"struct.faiss::IndexPQ" = type <{ %"struct.faiss::IndexFlatCodes", %"struct.faiss::ProductQuantizer", i8, [7 x i8], %"struct.faiss::PolysemousTraining", i32, i8, [3 x i8], i32, [4 x i8] }>
%"struct.faiss::IndexFlatCodes" = type { %"struct.faiss::Index.base", i64, %"class.std::vector.0" }
%"class.std::vector.0" = type { %"struct.std::_Vector_base.1" }
%"struct.std::_Vector_base.1" = type { %"struct.std::_Vector_base<unsigned char, std::allocator<unsigned char>>::_Vector_impl" }
%"struct.std::_Vector_base<unsigned char, std::allocator<unsigned char>>::_Vector_impl" = type { %"struct.std::_Vector_base<unsigned char, std::allocator<unsigned char>>::_Vector_impl_data" }
%"struct.std::_Vector_base<unsigned char, std::allocator<unsigned char>>::_Vector_impl_data" = type { ptr, ptr, ptr }
%"struct.faiss::PolysemousTraining" = type { %"struct.faiss::SimulatedAnnealingParameters.base", i32, i32, double, i64, %"class.std::__cxx11::basic_string" }
%"struct.faiss::SimulatedAnnealingParameters.base" = type <{ double, double, i32, i32, i32, i32, i8, i8 }>
%"class.std::__cxx11::basic_string" = type { %"struct.std::__cxx11::basic_string<char>::_Alloc_hider", i64, %union.anon }
%"struct.std::__cxx11::basic_string<char>::_Alloc_hider" = type { ptr }
%union.anon = type { i64, [8 x i8] }

; Function Attrs: mustprogress nounwind uwtable
define linkonce_odr noundef ptr @_ZN5faiss22AlignedTableTightAllocIhLi32EE3getEv(ptr noundef nonnull align 8 dereferenceable(16) %0) #0 comdat align 2 {
  %2 = alloca ptr, align 8
  store ptr %0, ptr %2, align 8
  %3 = load ptr, ptr %2, align 8
  %4 = getelementptr inbounds %"struct.faiss::AlignedTableTightAlloc", ptr %3, i32 0, i32 0
  %5 = load ptr, ptr %4, align 8
  ret ptr %5
}

; Function Attrs: mustprogress nounwind uwtable
define linkonce_odr noundef ptr @_ZNKSt6vectorIhSaIhEE11_M_data_ptrIhEEPT_S4_(ptr noundef nonnull align 8 dereferenceable(24) %0, ptr noundef %1) #0 comdat align 2 {
  %3 = alloca ptr, align 8
  %4 = alloca ptr, align 8
  store ptr %0, ptr %3, align 8
  store ptr %1, ptr %4, align 8
  %5 = load ptr, ptr %4, align 8
  ret ptr %5
}

; Function Attrs: mustprogress uwtable
define linkonce_odr noundef ptr @_ZN5faiss12AlignedTableIhLi32EE3getEv(ptr noundef nonnull align 8 dereferenceable(24) %0) #1 comdat align 2 {
  %2 = alloca ptr, align 8
  store ptr %0, ptr %2, align 8
  %3 = load ptr, ptr %2, align 8
  %4 = getelementptr inbounds %"struct.faiss::AlignedTable", ptr %3, i32 0, i32 0
  %5 = call noundef ptr @_ZN5faiss22AlignedTableTightAllocIhLi32EE3getEv(ptr noundef nonnull align 8 dereferenceable(16) %4)
  ret ptr %5
}

; Function Attrs: mustprogress nounwind uwtable
define linkonce_odr noundef ptr @_ZNKSt6vectorIhSaIhEE4dataEv(ptr noundef nonnull align 8 dereferenceable(24) %0) #0 comdat align 2 {
  %2 = alloca ptr, align 8
  store ptr %0, ptr %2, align 8
  %3 = load ptr, ptr %2, align 8
  %4 = getelementptr inbounds %"struct.std::_Vector_base.1", ptr %3, i32 0, i32 0
  %5 = getelementptr inbounds %"struct.std::_Vector_base<unsigned char, std::allocator<unsigned char>>::_Vector_impl_data", ptr %4, i32 0, i32 0
  %6 = load ptr, ptr %5, align 8
  %7 = call noundef ptr @_ZNKSt6vectorIhSaIhEE11_M_data_ptrIhEEPT_S4_(ptr noundef nonnull align 8 dereferenceable(24) %3, ptr noundef %6) #10
  ret ptr %7
}

; Function Attrs: mustprogress nounwind uwtable
define linkonce_odr noundef i64 @_ZN5faiss7roundupEmm(i64 noundef %0, i64 noundef %1) #0 comdat {
  %3 = alloca i64, align 8
  %4 = alloca i64, align 8
  store i64 %0, ptr %3, align 8
  store i64 %1, ptr %4, align 8
  %5 = load i64, ptr %3, align 8
  %6 = load i64, ptr %4, align 8
  %7 = add i64 %5, %6
  %8 = sub i64 %7, 1
  %9 = load i64, ptr %4, align 8
  %10 = udiv i64 %8, %9
  %11 = load i64, ptr %4, align 8
  %12 = mul i64 %10, %11
  ret i64 %12
}

; Function Attrs: mustprogress uwtable
define void @_ZN5faiss15IndexPQFastScanC2ERKNS_7IndexPQEi(ptr noundef nonnull align 8 dereferenceable(344) %0, ptr noundef nonnull align 8 dereferenceable(396) %1, i32 noundef %2) unnamed_addr #1 align 2 personality ptr @__gxx_personality_v0 {
  %4 = alloca ptr, align 8
  %5 = alloca ptr, align 8
  %6 = alloca i32, align 4
  %7 = alloca ptr, align 8
  %8 = alloca i32, align 4
  store ptr %0, ptr %4, align 8
  store ptr %1, ptr %5, align 8
  store i32 %2, ptr %6, align 4
  %9 = load ptr, ptr %4, align 8
  call void @_ZN5faiss13IndexFastScanC2Ev(ptr noundef nonnull align 8 dereferenceable(136) %9)
  store ptr getelementptr inbounds ({ [26 x ptr] }, ptr @_ZTVN5faiss15IndexPQFastScanE, i32 0, i32 0, i32 2), ptr %9, align 8
  %10 = getelementptr inbounds %"struct.faiss::IndexPQFastScan", ptr %9, i32 0, i32 1
  %11 = load ptr, ptr %5, align 8
  %12 = getelementptr inbounds %"struct.faiss::IndexPQ", ptr %11, i32 0, i32 1
  invoke void @_ZN5faiss16ProductQuantizerC2ERKS0_(ptr noundef nonnull align 8 dereferenceable(208) %10, ptr noundef nonnull align 8 dereferenceable(208) %12)
          to label %13 unwind label %74

13:                                               ; preds = %3
  %14 = load ptr, ptr %5, align 8
  %15 = getelementptr inbounds %"struct.faiss::Index", ptr %14, i32 0, i32 1
  %16 = load i32, ptr %15, align 8
  %17 = getelementptr inbounds %"struct.faiss::IndexPQFastScan", ptr %9, i32 0, i32 1
  %18 = getelementptr inbounds %"struct.faiss::ProductQuantizer", ptr %17, i32 0, i32 1
  %19 = load i64, ptr %18, align 8
  %20 = getelementptr inbounds %"struct.faiss::IndexPQFastScan", ptr %9, i32 0, i32 1
  %21 = getelementptr inbounds %"struct.faiss::ProductQuantizer", ptr %20, i32 0, i32 2
  %22 = load i64, ptr %21, align 8
  %23 = load ptr, ptr %5, align 8
  %24 = getelementptr inbounds %"struct.faiss::Index", ptr %23, i32 0, i32 7
  %25 = load i32, ptr %24, align 4
  %26 = load i32, ptr %6, align 4
  invoke void @_ZN5faiss13IndexFastScan13init_fastscanEimmNS_10MetricTypeEi(ptr noundef nonnull align 8 dereferenceable(136) %9, i32 noundef %16, i64 noundef %19, i64 noundef %22, i32 noundef %25, i32 noundef %26)
          to label %27 unwind label %78

27:                                               ; preds = %13
  %28 = load ptr, ptr %5, align 8
  %29 = getelementptr inbounds %"struct.faiss::Index", ptr %28, i32 0, i32 3
  %30 = load i64, ptr %29, align 8
  %31 = getelementptr inbounds %"struct.faiss::Index", ptr %9, i32 0, i32 3
  store i64 %30, ptr %31, align 8
  %32 = getelementptr inbounds %"struct.faiss::Index", ptr %9, i32 0, i32 3
  %33 = load i64, ptr %32, align 8
  %34 = load i32, ptr %6, align 4
  %35 = sext i32 %34 to i64
  %36 = invoke noundef i64 @_ZN5faiss7roundupEmm(i64 noundef %33, i64 noundef %35)
          to label %37 unwind label %78

37:                                               ; preds = %27
  %38 = getelementptr inbounds %"struct.faiss::IndexFastScan", ptr %9, i32 0, i32 9
  store i64 %36, ptr %38, align 8
  %39 = load ptr, ptr %5, align 8
  %40 = getelementptr inbounds %"struct.faiss::Index", ptr %39, i32 0, i32 5
  %41 = load i8, ptr %40, align 1
  %42 = trunc i8 %41 to i1
  %43 = getelementptr inbounds %"struct.faiss::Index", ptr %9, i32 0, i32 5
  %44 = zext i1 %42 to i8
  store i8 %44, ptr %43, align 1
  %45 = load ptr, ptr %5, align 8
  %46 = getelementptr inbounds %"struct.faiss::IndexFlatCodes", ptr %45, i32 0, i32 2
  %47 = call noundef ptr @_ZNKSt6vectorIhSaIhEE4dataEv(ptr noundef nonnull align 8 dereferenceable(24) %46) #10
  %48 = getelementptr inbounds %"struct.faiss::IndexFastScan", ptr %9, i32 0, i32 12
  store ptr %47, ptr %48, align 8
  %49 = getelementptr inbounds %"struct.faiss::IndexFastScan", ptr %9, i32 0, i32 11
  %50 = getelementptr inbounds %"struct.faiss::IndexFastScan", ptr %9, i32 0, i32 9
  %51 = load i64, ptr %50, align 8
  %52 = getelementptr inbounds %"struct.faiss::IndexFastScan", ptr %9, i32 0, i32 10
  %53 = load i64, ptr %52, align 8
  %54 = mul i64 %51, %53
  %55 = udiv i64 %54, 2
  invoke void @_ZN5faiss12AlignedTableIhLi32EE6resizeEm(ptr noundef nonnull align 8 dereferenceable(24) %49, i64 noundef %55)
          to label %56 unwind label %78

56:                                               ; preds = %37
  %57 = load ptr, ptr %5, align 8
  %58 = getelementptr inbounds %"struct.faiss::IndexFlatCodes", ptr %57, i32 0, i32 2
  %59 = call noundef ptr @_ZNKSt6vectorIhSaIhEE4dataEv(ptr noundef nonnull align 8 dereferenceable(24) %58) #10
  %60 = getelementptr inbounds %"struct.faiss::Index", ptr %9, i32 0, i32 3
  %61 = load i64, ptr %60, align 8
  %62 = getelementptr inbounds %"struct.faiss::IndexFastScan", ptr %9, i32 0, i32 5
  %63 = load i64, ptr %62, align 8
  %64 = getelementptr inbounds %"struct.faiss::IndexFastScan", ptr %9, i32 0, i32 9
  %65 = load i64, ptr %64, align 8
  %66 = load i32, ptr %6, align 4
  %67 = sext i32 %66 to i64
  %68 = getelementptr inbounds %"struct.faiss::IndexFastScan", ptr %9, i32 0, i32 10
  %69 = load i64, ptr %68, align 8
  %70 = getelementptr inbounds %"struct.faiss::IndexFastScan", ptr %9, i32 0, i32 11
  %71 = invoke noundef ptr @_ZN5faiss12AlignedTableIhLi32EE3getEv(ptr noundef nonnull align 8 dereferenceable(24) %70)
          to label %72 unwind label %78

72:                                               ; preds = %56
  invoke void @_ZN5faiss14pq4_pack_codesEPKhmmmmmPh(ptr noundef %59, i64 noundef %61, i64 noundef %63, i64 noundef %65, i64 noundef %67, i64 noundef %69, ptr noundef %71)
          to label %73 unwind label %78

73:                                               ; preds = %72
  ret void

74:                                               ; preds = %3
  %75 = landingpad { ptr, i32 }
          cleanup
  %76 = extractvalue { ptr, i32 } %75, 0
  store ptr %76, ptr %7, align 8
  %77 = extractvalue { ptr, i32 } %75, 1
  store i32 %77, ptr %8, align 4
  br label %82

78:                                               ; preds = %72, %56, %37, %27, %13
  %79 = landingpad { ptr, i32 }
          cleanup
  %80 = extractvalue { ptr, i32 } %79, 0
  store ptr %80, ptr %7, align 8
  %81 = extractvalue { ptr, i32 } %79, 1
  store i32 %81, ptr %8, align 4
  call void @_ZN5faiss16ProductQuantizerD2Ev(ptr noundef nonnull align 8 dereferenceable(208) %10) #10
  br label %82

82:                                               ; preds = %78, %74
  call void @_ZN5faiss13IndexFastScanD2Ev(ptr noundef nonnull align 8 dereferenceable(136) %9) #10
  br label %83

83:                                               ; preds = %82
  %84 = load ptr, ptr %7, align 8
  %85 = load i32, ptr %8, align 4
  %86 = insertvalue { ptr, i32 } poison, ptr %84, 0
  %87 = insertvalue { ptr, i32 } %86, i32 %85, 1
  resume { ptr, i32 } %87
}