; Function Attrs: mustprogress uwtable
define void @_ZN5faiss15IndexPQFastScanC2ERKNS_7IndexPQEi(ptr noundef nonnull align 8 dereferenceable(344) %0, ptr noundef nonnull align 8 dereferenceable(396) %1, i32 noundef %2) unnamed_addr #1 align 2 personality ptr @__gxx_personality_v0 {
  tail call void @_ZN5faiss13IndexFastScanC2Ev(ptr noundef nonnull align 8 dereferenceable(136) %0)
  store ptr getelementptr inbounds ({ [26 x ptr] }, ptr @_ZTVN5faiss15IndexPQFastScanE, i64 0, i32 0, i64 2), ptr %0, align 8
  %4 = getelementptr inbounds i8, ptr %0, i64 136
  %5 = getelementptr inbounds i8, ptr %1, i64 72
  invoke void @_ZN5faiss16ProductQuantizerC2ERKS0_(ptr noundef nonnull align 8 dereferenceable(208) %4, ptr noundef nonnull align 8 dereferenceable(208) %5)
          to label %6 unwind label %46

6:                                                ; preds = %3
  %7 = getelementptr inbounds i8, ptr %1, i64 8
  %8 = load i32, ptr %7, align 8
  %9 = getelementptr inbounds i8, ptr %0, i64 160
  %10 = load i64, ptr %9, align 8
  %11 = getelementptr inbounds i8, ptr %0, i64 168
  %12 = load i64, ptr %11, align 8
  %13 = getelementptr inbounds i8, ptr %1, i64 28
  %14 = load i32, ptr %13, align 4
  invoke void @_ZN5faiss13IndexFastScan13init_fastscanEimmNS_10MetricTypeEi(ptr noundef nonnull align 8 dereferenceable(136) %0, i32 noundef %8, i64 noundef %10, i64 noundef %12, i32 noundef %14, i32 noundef %2)
          to label %15 unwind label %48

15:                                               ; preds = %6
  %16 = getelementptr inbounds i8, ptr %1, i64 16
  %17 = load i64, ptr %16, align 8
  %18 = getelementptr inbounds i8, ptr %0, i64 16
  store i64 %17, ptr %18, align 8
  %19 = sext i32 %2 to i64
  %20 = add nsw i64 %19, -1
  %21 = add i64 %20, %17
  %22 = urem i64 %21, %19
  %23 = sub nuw i64 %21, %22
  %24 = getelementptr inbounds i8, ptr %0, i64 88
  store i64 %23, ptr %24, align 8
  %25 = getelementptr inbounds i8, ptr %1, i64 25
  %26 = load i8, ptr %25, align 1
  %27 = and i8 %26, 1
  %28 = getelementptr inbounds i8, ptr %0, i64 25
  store i8 %27, ptr %28, align 1
  %29 = getelementptr inbounds i8, ptr %1, i64 48
  %30 = load ptr, ptr %29, align 8
  %31 = getelementptr inbounds i8, ptr %0, i64 128
  store ptr %30, ptr %31, align 8
  %32 = getelementptr inbounds i8, ptr %0, i64 104
  %33 = getelementptr inbounds i8, ptr %0, i64 96
  %34 = load i64, ptr %33, align 8
  %35 = mul i64 %34, %23
  %36 = lshr i64 %35, 1
  invoke void @_ZN5faiss12AlignedTableIhLi32EE6resizeEm(ptr noundef nonnull align 8 dereferenceable(24) %32, i64 noundef %36)
          to label %37 unwind label %48

37:                                               ; preds = %15
  %38 = load ptr, ptr %29, align 8
  %39 = load i64, ptr %18, align 8
  %40 = getelementptr inbounds i8, ptr %0, i64 56
  %41 = load i64, ptr %40, align 8
  %42 = load i64, ptr %24, align 8
  %43 = load i64, ptr %33, align 8
  %44 = load ptr, ptr %32, align 8
  invoke void @_ZN5faiss14pq4_pack_codesEPKhmmmmmPh(ptr noundef %38, i64 noundef %39, i64 noundef %41, i64 noundef %42, i64 noundef %19, i64 noundef %43, ptr noundef %44)
          to label %45 unwind label %48

45:                                               ; preds = %37
  ret void

46:                                               ; preds = %3
  %47 = landingpad { ptr, i32 }
          cleanup
  br label %50

48:                                               ; preds = %37, %15, %6
  %49 = landingpad { ptr, i32 }
          cleanup
  tail call void @_ZN5faiss16ProductQuantizerD2Ev(ptr noundef nonnull align 8 dereferenceable(208) %4) #15
  br label %50

50:                                               ; preds = %48, %46
  %.pn = phi { ptr, i32 } [ %49, %48 ], [ %47, %46 ]
  tail call void @_ZN5faiss13IndexFastScanD2Ev(ptr noundef nonnull align 8 dereferenceable(136) %0) #15
  resume { ptr, i32 } %.pn
}